
baz.elf:	file format elf32-littleriscv

Disassembly of section ._vector:

80000000 <crtStart>:
80000000: 37 01 00 80  	lui	sp, 524288
80000004: 13 01 41 0b  	addi	sp, sp, 180
80000008: e7 00 01 00  	jalr	sp
8000000c: 13 00 00 00  	nop
		...

80000020 <trap_entry>:
80000020: 23 2e 11 fe  	sw	ra, -4(sp)
80000024: 23 2c 51 fe  	sw	t0, -8(sp)
80000028: 23 2a 61 fe  	sw	t1, -12(sp)
8000002c: 23 28 71 fe  	sw	t2, -16(sp)
80000030: 23 26 a1 fe  	sw	a0, -20(sp)
80000034: 23 24 b1 fe  	sw	a1, -24(sp)
80000038: 23 22 c1 fe  	sw	a2, -28(sp)
8000003c: 23 20 d1 fe  	sw	a3, -32(sp)
80000040: 23 2e e1 fc  	sw	a4, -36(sp)
80000044: 23 2c f1 fc  	sw	a5, -40(sp)
80000048: 23 2a 01 fd  	sw	a6, -44(sp)
8000004c: 23 28 11 fd  	sw	a7, -48(sp)
80000050: 23 26 c1 fd  	sw	t3, -52(sp)
80000054: 23 24 d1 fd  	sw	t4, -56(sp)
80000058: 23 22 e1 fd  	sw	t5, -60(sp)
8000005c: 23 20 f1 fd  	sw	t6, -64(sp)
80000060: 13 01 01 fc  	addi	sp, sp, -64
80000064: 97 00 00 00  	auipc	ra, 0
80000068: e7 80 80 38  	jalr	904(ra)
8000006c: 83 20 c1 03  	lw	ra, 60(sp)
80000070: 83 22 81 03  	lw	t0, 56(sp)
80000074: 03 23 41 03  	lw	t1, 52(sp)
80000078: 83 23 01 03  	lw	t2, 48(sp)
8000007c: 03 25 c1 02  	lw	a0, 44(sp)
80000080: 83 25 81 02  	lw	a1, 40(sp)
80000084: 03 26 41 02  	lw	a2, 36(sp)
80000088: 83 26 01 02  	lw	a3, 32(sp)
8000008c: 03 27 c1 01  	lw	a4, 28(sp)
80000090: 83 27 81 01  	lw	a5, 24(sp)
80000094: 03 28 41 01  	lw	a6, 20(sp)
80000098: 83 28 01 01  	lw	a7, 16(sp)
8000009c: 03 2e c1 00  	lw	t3, 12(sp)
800000a0: 83 2e 81 00  	lw	t4, 8(sp)
800000a4: 03 2f 41 00  	lw	t5, 4(sp)
800000a8: 83 2f 01 00  	lw	t6, 0(sp)
800000ac: 13 01 01 04  	addi	sp, sp, 64
800000b0: 73 00 20 30  	mret	

800000b4 <crtInit>:
800000b4: 97 11 00 00  	auipc	gp, 1
800000b8: 93 81 c1 88  	addi	gp, gp, -1908

800000bc <.Lpcrel_hi1>:
800000bc: 17 01 00 00  	auipc	sp, 0
800000c0: 13 01 41 08  	addi	sp, sp, 132

800000c4 <bss_init>:
800000c4: 17 05 00 00  	auipc	a0, 0
800000c8: 13 05 c5 07  	addi	a0, a0, 124

800000cc <.Lpcrel_hi3>:
800000cc: 97 05 00 00  	auipc	a1, 0
800000d0: 93 85 05 10  	addi	a1, a1, 256

800000d4 <bss_loop>:
800000d4: 63 08 b5 00  	beq	a0, a1, 0x800000e4 <ctors_init>
800000d8: 23 20 05 00  	sw	zero, 0(a0)
800000dc: 13 05 45 00  	addi	a0, a0, 4
800000e0: 6f f0 5f ff  	j	0x800000d4 <bss_loop>

800000e4 <ctors_init>:
800000e4: 17 05 00 00  	auipc	a0, 0
800000e8: 13 05 c5 34  	addi	a0, a0, 844
800000ec: 13 01 c1 ff  	addi	sp, sp, -4

800000f0 <ctors_loop>:
800000f0: 97 05 00 00  	auipc	a1, 0
800000f4: 93 85 05 34  	addi	a1, a1, 832
800000f8: 63 0e b5 00  	beq	a0, a1, 0x80000114 <ctors_done>
800000fc: 83 26 05 00  	lw	a3, 0(a0)
80000100: 13 05 45 00  	addi	a0, a0, 4
80000104: 23 20 a1 00  	sw	a0, 0(sp)
80000108: e7 80 06 00  	jalr	a3
8000010c: 03 25 01 00  	lw	a0, 0(sp)
80000110: 6f f0 1f fe  	j	0x800000f0 <ctors_loop>

80000114 <ctors_done>:
80000114: 13 01 41 00  	addi	sp, sp, 4
80000118: 37 15 00 00  	lui	a0, 1
8000011c: 13 05 05 88  	addi	a0, a0, -1920
80000120: 73 10 45 30  	csrw	mie, a0
80000124: 37 25 00 00  	lui	a0, 2
80000128: 13 05 85 80  	addi	a0, a0, -2040
8000012c: 73 10 05 30  	csrw	mstatus, a0
80000130: 97 00 00 00  	auipc	ra, 0
80000134: e7 80 80 10  	jalr	264(ra)

80000138 <infinitLoop>:
80000138: 6f 00 00 00  	j	0x80000138 <infinitLoop>

Disassembly of section .memory:

800001cc <clear>:
800001cc: 13 01 01 ff  	addi	sp, sp, -16
800001d0: 23 26 11 00  	sw	ra, 12(sp)
800001d4: 23 24 81 00  	sw	s0, 8(sp)
800001d8: 13 04 01 01  	addi	s0, sp, 16
800001dc: 13 05 00 00  	li	a0, 0
800001e0: 23 2a a4 fe  	sw	a0, -12(s0)
800001e4: 6f 00 40 00  	j	0x800001e8 <.LBB0_1>

800001e8 <.LBB0_1>:
800001e8: 83 25 44 ff  	lw	a1, -12(s0)
800001ec: 13 05 90 00  	li	a0, 9
800001f0: 63 4c b5 02  	blt	a0, a1, 0x80000228 <.LBB0_4>
800001f4: 6f 00 40 00  	j	0x800001f8 <.LBB0_2>

800001f8 <.LBB0_2>:
800001f8: 03 25 44 ff  	lw	a0, -12(s0)
800001fc: 93 15 25 00  	slli	a1, a0, 2
80000200: 37 05 00 80  	lui	a0, 524288
80000204: 13 05 45 1a  	addi	a0, a0, 420
80000208: b3 05 b5 00  	add	a1, a0, a1
8000020c: 13 05 00 00  	li	a0, 0
80000210: 23 a0 a5 00  	sw	a0, 0(a1)
80000214: 6f 00 40 00  	j	0x80000218 <.LBB0_3>

80000218 <.LBB0_3>:
80000218: 03 25 44 ff  	lw	a0, -12(s0)
8000021c: 13 05 15 00  	addi	a0, a0, 1
80000220: 23 2a a4 fe  	sw	a0, -12(s0)
80000224: 6f f0 5f fc  	j	0x800001e8 <.LBB0_1>

80000228 <.LBB0_4>:
80000228: 83 20 c1 00  	lw	ra, 12(sp)
8000022c: 03 24 81 00  	lw	s0, 8(sp)
80000230: 13 01 01 01  	addi	sp, sp, 16
80000234: 67 80 00 00  	ret

80000238 <main>:
80000238: 13 01 01 fd  	addi	sp, sp, -48
8000023c: 23 26 11 02  	sw	ra, 44(sp)
80000240: 23 24 81 02  	sw	s0, 40(sp)
80000244: 13 04 01 03  	addi	s0, sp, 48
80000248: 13 05 00 00  	li	a0, 0
8000024c: 23 2a a4 fe  	sw	a0, -12(s0)
80000250: b7 05 00 80  	lui	a1, 524288
80000254: 93 07 10 00  	li	a5, 1
80000258: 23 a0 f5 14  	sw	a5, 320(a1)
8000025c: 13 86 05 14  	addi	a2, a1, 320
80000260: 23 2e c4 fc  	sw	a2, -36(s0)
80000264: 13 08 40 00  	li	a6, 4
80000268: 23 22 06 01  	sw	a6, 4(a2)
8000026c: 93 05 f0 ff  	li	a1, -1
80000270: 23 24 b6 00  	sw	a1, 8(a2)
80000274: 23 2a a6 00  	sw	a0, 20(a2)
80000278: 13 07 20 00  	li	a4, 2
8000027c: 23 2c e6 00  	sw	a4, 24(a2)
80000280: 93 06 30 00  	li	a3, 3
80000284: 23 2e d6 00  	sw	a3, 28(a2)
80000288: 23 20 06 03  	sw	a6, 32(a2)
8000028c: 23 22 b6 02  	sw	a1, 36(a2)
80000290: 23 24 f6 02  	sw	a5, 40(a2)
80000294: 23 26 d6 02  	sw	a3, 44(a2)
80000298: 23 28 06 03  	sw	a6, 48(a2)
8000029c: 23 2a b6 02  	sw	a1, 52(a2)
800002a0: 23 2e f6 02  	sw	a5, 60(a2)
800002a4: 23 20 e6 04  	sw	a4, 64(a2)
800002a8: 23 22 06 05  	sw	a6, 68(a2)
800002ac: 23 24 b6 04  	sw	a1, 72(a2)
800002b0: 23 28 a6 04  	sw	a0, 80(a2)
800002b4: 23 2a f6 04  	sw	a5, 84(a2)
800002b8: 23 2c e6 04  	sw	a4, 88(a2)
800002bc: 23 2e d6 04  	sw	a3, 92(a2)
800002c0: 23 20 b6 06  	sw	a1, 96(a2)
800002c4: 23 28 a4 fe  	sw	a0, -16(s0)
800002c8: 23 26 a4 fe  	sw	a0, -20(s0)
800002cc: 6f 00 40 00  	j	0x800002d0 <.LBB1_1>

800002d0 <.LBB1_1>:
800002d0: 83 25 c4 fe  	lw	a1, -20(s0)
800002d4: 13 05 40 00  	li	a0, 4
800002d8: 63 40 b5 10  	blt	a0, a1, 0x800003d8 <.LBB1_8>
800002dc: 6f 00 40 00  	j	0x800002e0 <.LBB1_2>

800002e0 <.LBB1_2>:
800002e0: 03 25 c4 fe  	lw	a0, -20(s0)
800002e4: 93 05 40 01  	li	a1, 20
800002e8: ef 00 40 12  	jal	0x8000040c <__mulsi3>
800002ec: 93 05 05 00  	mv	a1, a0
800002f0: 37 05 00 80  	lui	a0, 524288
800002f4: 13 05 05 14  	addi	a0, a0, 320
800002f8: 33 05 b5 00  	add	a0, a0, a1
800002fc: 0b 65 05 04  	setcount	a0, a0
80000300: 23 24 a4 fe  	sw	a0, -24(s0)
80000304: 13 05 00 00  	li	a0, 0
80000308: 23 22 a4 fe  	sw	a0, -28(s0)
8000030c: 6f 00 40 00  	j	0x80000310 <.LBB1_3>

80000310 <.LBB1_3>:
80000310: 03 25 44 fe  	lw	a0, -28(s0)
80000314: 83 25 84 fe  	lw	a1, -24(s0)
80000318: 63 56 b5 0a  	bge	a0, a1, 0x800003c4 <.LBB1_6>
8000031c: 6f 00 40 00  	j	0x80000320 <.LBB1_4>

80000320 <.LBB1_4>:
80000320: 03 25 c4 fe  	lw	a0, -20(s0)
80000324: 93 05 40 01  	li	a1, 20
80000328: 23 28 b4 fc  	sw	a1, -48(s0)
8000032c: ef 00 00 0e  	jal	0x8000040c <__mulsi3>
80000330: 93 05 05 00  	mv	a1, a0
80000334: 37 05 00 80  	lui	a0, 524288
80000338: 13 05 05 14  	addi	a0, a0, 320
8000033c: 23 2c a4 fc  	sw	a0, -40(s0)
80000340: 33 05 b5 00  	add	a0, a0, a1
80000344: 83 25 44 fe  	lw	a1, -28(s0)
80000348: 93 95 25 00  	slli	a1, a1, 2
8000034c: 33 05 b5 00  	add	a0, a0, a1
80000350: 03 25 05 00  	lw	a0, 0(a0)
80000354: 23 20 a4 fe  	sw	a0, -32(s0)
80000358: ef f0 5f e7  	jal	0x800001cc <clear>
8000035c: 83 25 04 fd  	lw	a1, -48(s0)
80000360: 03 25 c4 fe  	lw	a0, -20(s0)
80000364: ef 00 80 0a  	jal	0x8000040c <__mulsi3>
80000368: 83 25 04 fd  	lw	a1, -48(s0)
8000036c: 13 06 05 00  	mv	a2, a0
80000370: 03 25 84 fd  	lw	a0, -40(s0)
80000374: 33 05 c5 00  	add	a0, a0, a2
80000378: 23 2a a4 fc  	sw	a0, -44(s0)
8000037c: 03 25 04 fe  	lw	a0, -32(s0)
80000380: ef 00 c0 08  	jal	0x8000040c <__mulsi3>
80000384: 83 25 44 fd  	lw	a1, -44(s0)
80000388: 13 06 05 00  	mv	a2, a0
8000038c: 03 25 84 fd  	lw	a0, -40(s0)
80000390: 33 06 c5 00  	add	a2, a0, a2
80000394: 37 05 00 80  	lui	a0, 524288
80000398: 13 05 45 1a  	addi	a0, a0, 420
8000039c: 0b f5 c5 00  	setinter	a0, a1, a2
800003a0: 8b 65 05 04  	setcount	a1, a0
800003a4: 03 25 04 ff  	lw	a0, -16(s0)
800003a8: 33 05 b5 00  	add	a0, a0, a1
800003ac: 23 28 a4 fe  	sw	a0, -16(s0)
800003b0: 6f 00 40 00  	j	0x800003b4 <.LBB1_5>

800003b4 <.LBB1_5>:
800003b4: 03 25 44 fe  	lw	a0, -28(s0)
800003b8: 13 05 15 00  	addi	a0, a0, 1
800003bc: 23 22 a4 fe  	sw	a0, -28(s0)
800003c0: 6f f0 1f f5  	j	0x80000310 <.LBB1_3>

800003c4 <.LBB1_6>:
800003c4: 6f 00 40 00  	j	0x800003c8 <.LBB1_7>

800003c8 <.LBB1_7>:
800003c8: 03 25 c4 fe  	lw	a0, -20(s0)
800003cc: 13 05 15 00  	addi	a0, a0, 1
800003d0: 23 26 a4 fe  	sw	a0, -20(s0)
800003d4: 6f f0 df ef  	j	0x800002d0 <.LBB1_1>

800003d8 <.LBB1_8>:
800003d8: 03 25 04 ff  	lw	a0, -16(s0)
800003dc: 83 20 c1 02  	lw	ra, 44(sp)
800003e0: 03 24 81 02  	lw	s0, 40(sp)
800003e4: 13 01 01 03  	addi	sp, sp, 48
800003e8: 67 80 00 00  	ret

800003ec <irqCallback>:
800003ec: 13 01 01 ff  	addi	sp, sp, -16
800003f0: 23 26 11 00  	sw	ra, 12(sp)
800003f4: 23 24 81 00  	sw	s0, 8(sp)
800003f8: 13 04 01 01  	addi	s0, sp, 16
800003fc: 83 20 c1 00  	lw	ra, 12(sp)
80000400: 03 24 81 00  	lw	s0, 8(sp)
80000404: 13 01 01 01  	addi	sp, sp, 16
80000408: 67 80 00 00  	ret

8000040c <__mulsi3>:
8000040c: 13 06 05 00  	mv	a2, a0
80000410: 13 05 00 00  	li	a0, 0

80000414 <.L1>:
80000414: 93 f6 15 00  	andi	a3, a1, 1
80000418: 63 84 06 00  	beqz	a3, 0x80000420 <.L2>
8000041c: 33 05 c5 00  	add	a0, a0, a2

80000420 <.L2>:
80000420: 93 d5 15 00  	srli	a1, a1, 1
80000424: 13 16 16 00  	slli	a2, a2, 1
80000428: e3 96 05 fe  	bnez	a1, 0x80000414 <.L1>
8000042c: 67 80 00 00  	ret
