
main.elf:	file format elf32-littleriscv

Disassembly of section ._vector:

80000000 <crtStart>:
80000000: 37 01 00 80  	lui	sp, 524288
80000004: 13 01 41 0b  	addi	sp, sp, 180
80000008: e7 00 01 00  	jalr	sp
8000000c: 13 00 00 00  	nop
		...

80000020 <trap_entry>:
80000020: 23 2e 11 fe  	sw	ra, -4(sp)
80000024: 23 2c 51 fe  	sw	t0, -8(sp)
80000028: 23 2a 61 fe  	sw	t1, -12(sp)
8000002c: 23 28 71 fe  	sw	t2, -16(sp)
80000030: 23 26 a1 fe  	sw	a0, -20(sp)
80000034: 23 24 b1 fe  	sw	a1, -24(sp)
80000038: 23 22 c1 fe  	sw	a2, -28(sp)
8000003c: 23 20 d1 fe  	sw	a3, -32(sp)
80000040: 23 2e e1 fc  	sw	a4, -36(sp)
80000044: 23 2c f1 fc  	sw	a5, -40(sp)
80000048: 23 2a 01 fd  	sw	a6, -44(sp)
8000004c: 23 28 11 fd  	sw	a7, -48(sp)
80000050: 23 26 c1 fd  	sw	t3, -52(sp)
80000054: 23 24 d1 fd  	sw	t4, -56(sp)
80000058: 23 22 e1 fd  	sw	t5, -60(sp)
8000005c: 23 20 f1 fd  	sw	t6, -64(sp)
80000060: 13 01 01 fc  	addi	sp, sp, -64
80000064: 97 00 00 00  	auipc	ra, 0
80000068: e7 80 c0 53  	jalr	1340(ra)
8000006c: 83 20 c1 03  	lw	ra, 60(sp)
80000070: 83 22 81 03  	lw	t0, 56(sp)
80000074: 03 23 41 03  	lw	t1, 52(sp)
80000078: 83 23 01 03  	lw	t2, 48(sp)
8000007c: 03 25 c1 02  	lw	a0, 44(sp)
80000080: 83 25 81 02  	lw	a1, 40(sp)
80000084: 03 26 41 02  	lw	a2, 36(sp)
80000088: 83 26 01 02  	lw	a3, 32(sp)
8000008c: 03 27 c1 01  	lw	a4, 28(sp)
80000090: 83 27 81 01  	lw	a5, 24(sp)
80000094: 03 28 41 01  	lw	a6, 20(sp)
80000098: 83 28 01 01  	lw	a7, 16(sp)
8000009c: 03 2e c1 00  	lw	t3, 12(sp)
800000a0: 83 2e 81 00  	lw	t4, 8(sp)
800000a4: 03 2f 41 00  	lw	t5, 4(sp)
800000a8: 83 2f 01 00  	lw	t6, 0(sp)
800000ac: 13 01 01 04  	addi	sp, sp, 64
800000b0: 73 00 20 30  	mret	

800000b4 <crtInit>:
800000b4: 97 11 00 00  	auipc	gp, 1
800000b8: 93 81 41 90  	addi	gp, gp, -1788

800000bc <.Lpcrel_hi1>:
800000bc: 17 01 00 00  	auipc	sp, 0
800000c0: 13 01 41 07  	addi	sp, sp, 116

800000c4 <bss_init>:
800000c4: 17 05 00 00  	auipc	a0, 0
800000c8: 13 05 45 0f  	addi	a0, a0, 244

800000cc <.Lpcrel_hi3>:
800000cc: 97 05 00 00  	auipc	a1, 0
800000d0: 93 85 c5 12  	addi	a1, a1, 300

800000d4 <bss_loop>:
800000d4: 63 08 b5 00  	beq	a0, a1, 0x800000e4 <ctors_init>
800000d8: 23 20 05 00  	sw	zero, 0(a0)
800000dc: 13 05 45 00  	addi	a0, a0, 4
800000e0: 6f f0 5f ff  	j	0x800000d4 <bss_loop>

800000e4 <ctors_init>:
800000e4: 17 15 00 00  	auipc	a0, 1
800000e8: 13 05 85 8e  	addi	a0, a0, -1816
800000ec: 13 01 c1 ff  	addi	sp, sp, -4

800000f0 <ctors_loop>:
800000f0: 97 15 00 00  	auipc	a1, 1
800000f4: 93 85 c5 8d  	addi	a1, a1, -1828
800000f8: 63 0e b5 00  	beq	a0, a1, 0x80000114 <ctors_done>
800000fc: 83 26 05 00  	lw	a3, 0(a0)
80000100: 13 05 45 00  	addi	a0, a0, 4
80000104: 23 20 a1 00  	sw	a0, 0(sp)
80000108: e7 80 06 00  	jalr	a3
8000010c: 03 25 01 00  	lw	a0, 0(sp)
80000110: 6f f0 1f fe  	j	0x800000f0 <ctors_loop>

80000114 <ctors_done>:
80000114: 13 01 41 00  	addi	sp, sp, 4
80000118: 97 00 00 00  	auipc	ra, 0
8000011c: e7 80 00 30  	jalr	768(ra)

80000120 <infinitLoop>:
80000120: 6f 00 00 00  	j	0x80000120 <infinitLoop>

Disassembly of section .memory:

800001f8 <print>:
800001f8: 13 01 01 ff  	addi	sp, sp, -16
800001fc: 23 26 11 00  	sw	ra, 12(sp)
80000200: 23 24 81 00  	sw	s0, 8(sp)
80000204: 13 04 01 01  	addi	s0, sp, 16
80000208: 23 2a a4 fe  	sw	a0, -12(s0)
8000020c: 6f 00 40 00  	j	0x80000210 <.LBB0_1>

80000210 <.LBB0_1>:
80000210: 03 25 44 ff  	lw	a0, -12(s0)
80000214: 03 45 05 00  	lbu	a0, 0(a0)
80000218: 93 05 00 00  	li	a1, 0
8000021c: 63 04 b5 02  	beq	a0, a1, 0x80000244 <.LBB0_3>
80000220: 6f 00 40 00  	j	0x80000224 <.LBB0_2>

80000224 <.LBB0_2>:
80000224: 03 25 44 ff  	lw	a0, -12(s0)
80000228: 83 45 05 00  	lbu	a1, 0(a0)
8000022c: 37 05 00 f0  	lui	a0, 983040
80000230: ef 00 40 02  	jal	0x80000254 <uart_write>
80000234: 03 25 44 ff  	lw	a0, -12(s0)
80000238: 13 05 15 00  	addi	a0, a0, 1
8000023c: 23 2a a4 fe  	sw	a0, -12(s0)
80000240: 6f f0 1f fd  	j	0x80000210 <.LBB0_1>

80000244 <.LBB0_3>:
80000244: 83 20 c1 00  	lw	ra, 12(sp)
80000248: 03 24 81 00  	lw	s0, 8(sp)
8000024c: 13 01 01 01  	addi	sp, sp, 16
80000250: 67 80 00 00  	ret

80000254 <uart_write>:
80000254: 13 01 01 ff  	addi	sp, sp, -16
80000258: 23 26 11 00  	sw	ra, 12(sp)
8000025c: 23 24 81 00  	sw	s0, 8(sp)
80000260: 13 04 01 01  	addi	s0, sp, 16
80000264: 23 2a a4 fe  	sw	a0, -12(s0)
80000268: 23 28 b4 fe  	sw	a1, -16(s0)
8000026c: 6f 00 40 00  	j	0x80000270 <.LBB1_1>

80000270 <.LBB1_1>:
80000270: 03 25 44 ff  	lw	a0, -12(s0)
80000274: ef 00 c0 34  	jal	0x800005c0 <uart_writeAvailability>
80000278: 93 05 00 00  	li	a1, 0
8000027c: 63 16 b5 00  	bne	a0, a1, 0x80000288 <.LBB1_3>
80000280: 6f 00 40 00  	j	0x80000284 <.LBB1_2>

80000284 <.LBB1_2>:
80000284: 6f f0 df fe  	j	0x80000270 <.LBB1_1>

80000288 <.LBB1_3>:
80000288: 03 25 04 ff  	lw	a0, -16(s0)
8000028c: 83 25 44 ff  	lw	a1, -12(s0)
80000290: 23 a0 a5 00  	sw	a0, 0(a1)
80000294: 83 20 c1 00  	lw	ra, 12(sp)
80000298: 03 24 81 00  	lw	s0, 8(sp)
8000029c: 13 01 01 01  	addi	sp, sp, 16
800002a0: 67 80 00 00  	ret

800002a4 <println>:
800002a4: 13 01 01 ff  	addi	sp, sp, -16
800002a8: 23 26 11 00  	sw	ra, 12(sp)
800002ac: 23 24 81 00  	sw	s0, 8(sp)
800002b0: 13 04 01 01  	addi	s0, sp, 16
800002b4: 23 2a a4 fe  	sw	a0, -12(s0)
800002b8: 03 25 44 ff  	lw	a0, -12(s0)
800002bc: ef f0 df f3  	jal	0x800001f8 <print>
800002c0: 37 05 00 f0  	lui	a0, 983040
800002c4: 93 05 a0 00  	li	a1, 10
800002c8: ef f0 df f8  	jal	0x80000254 <uart_write>
800002cc: 83 20 c1 00  	lw	ra, 12(sp)
800002d0: 03 24 81 00  	lw	s0, 8(sp)
800002d4: 13 01 01 01  	addi	sp, sp, 16
800002d8: 67 80 00 00  	ret

800002dc <itoa>:
800002dc: 13 01 01 fd  	addi	sp, sp, -48
800002e0: 23 26 11 02  	sw	ra, 44(sp)
800002e4: 23 24 81 02  	sw	s0, 40(sp)
800002e8: 13 04 01 03  	addi	s0, sp, 48
800002ec: 23 2a a4 fe  	sw	a0, -12(s0)
800002f0: 23 28 b4 fe  	sw	a1, -16(s0)
800002f4: 23 26 c4 fe  	sw	a2, -20(s0)
800002f8: 03 25 04 ff  	lw	a0, -16(s0)
800002fc: 23 24 a4 fe  	sw	a0, -24(s0)
80000300: 03 25 04 ff  	lw	a0, -16(s0)
80000304: 23 22 a4 fe  	sw	a0, -28(s0)
80000308: 6f 00 40 00  	j	0x8000030c <.LBB3_1>

8000030c <.LBB3_1>:
8000030c: 03 25 44 ff  	lw	a0, -12(s0)
80000310: 23 2e a4 fc  	sw	a0, -36(s0)
80000314: 83 25 c4 fe  	lw	a1, -20(s0)
80000318: 03 25 44 ff  	lw	a0, -12(s0)
8000031c: ef 00 c0 2f  	jal	0x80000618 <__divsi3>
80000320: 23 2a a4 fe  	sw	a0, -12(s0)
80000324: 03 25 c4 fd  	lw	a0, -36(s0)
80000328: 23 2c a4 fc  	sw	a0, -40(s0)
8000032c: 03 25 44 ff  	lw	a0, -12(s0)
80000330: 83 25 c4 fe  	lw	a1, -20(s0)
80000334: ef 00 00 2c  	jal	0x800005f4 <__mulsi3>
80000338: 93 05 05 00  	mv	a1, a0
8000033c: 03 25 84 fd  	lw	a0, -40(s0)
80000340: 33 05 b5 40  	sub	a0, a0, a1
80000344: b7 05 00 80  	lui	a1, 524288
80000348: 93 85 05 13  	addi	a1, a1, 304
8000034c: 33 05 b5 00  	add	a0, a0, a1
80000350: 03 05 35 02  	lb	a0, 35(a0)
80000354: 83 25 84 fe  	lw	a1, -24(s0)
80000358: 13 86 15 00  	addi	a2, a1, 1
8000035c: 23 24 c4 fe  	sw	a2, -24(s0)
80000360: 23 80 a5 00  	sb	a0, 0(a1)
80000364: 6f 00 40 00  	j	0x80000368 <.LBB3_2>

80000368 <.LBB3_2>:
80000368: 03 25 44 ff  	lw	a0, -12(s0)
8000036c: 93 05 00 00  	li	a1, 0
80000370: e3 1e b5 f8  	bne	a0, a1, 0x8000030c <.LBB3_1>
80000374: 6f 00 40 00  	j	0x80000378 <.LBB3_3>

80000378 <.LBB3_3>:
80000378: 03 25 c4 fd  	lw	a0, -36(s0)
8000037c: 93 05 00 00  	li	a1, 0
80000380: 63 50 b5 02  	bge	a0, a1, 0x800003a0 <.LBB3_5>
80000384: 6f 00 40 00  	j	0x80000388 <.LBB3_4>

80000388 <.LBB3_4>:
80000388: 83 25 84 fe  	lw	a1, -24(s0)
8000038c: 13 85 15 00  	addi	a0, a1, 1
80000390: 23 24 a4 fe  	sw	a0, -24(s0)
80000394: 13 05 d0 02  	li	a0, 45
80000398: 23 80 a5 00  	sb	a0, 0(a1)
8000039c: 6f 00 40 00  	j	0x800003a0 <.LBB3_5>

800003a0 <.LBB3_5>:
800003a0: 83 25 84 fe  	lw	a1, -24(s0)
800003a4: 13 85 f5 ff  	addi	a0, a1, -1
800003a8: 23 24 a4 fe  	sw	a0, -24(s0)
800003ac: 13 05 00 00  	li	a0, 0
800003b0: 23 80 a5 00  	sb	a0, 0(a1)
800003b4: 6f 00 40 00  	j	0x800003b8 <.LBB3_6>

800003b8 <.LBB3_6>:
800003b8: 03 25 44 fe  	lw	a0, -28(s0)
800003bc: 83 25 84 fe  	lw	a1, -24(s0)
800003c0: 63 72 b5 04  	bgeu	a0, a1, 0x80000404 <.LBB3_8>
800003c4: 6f 00 40 00  	j	0x800003c8 <.LBB3_7>

800003c8 <.LBB3_7>:
800003c8: 03 25 84 fe  	lw	a0, -24(s0)
800003cc: 03 05 05 00  	lb	a0, 0(a0)
800003d0: a3 01 a4 fe  	sb	a0, -29(s0)
800003d4: 03 25 44 fe  	lw	a0, -28(s0)
800003d8: 03 05 05 00  	lb	a0, 0(a0)
800003dc: 83 25 84 fe  	lw	a1, -24(s0)
800003e0: 13 86 f5 ff  	addi	a2, a1, -1
800003e4: 23 24 c4 fe  	sw	a2, -24(s0)
800003e8: 23 80 a5 00  	sb	a0, 0(a1)
800003ec: 03 05 34 fe  	lb	a0, -29(s0)
800003f0: 83 25 44 fe  	lw	a1, -28(s0)
800003f4: 13 86 15 00  	addi	a2, a1, 1
800003f8: 23 22 c4 fe  	sw	a2, -28(s0)
800003fc: 23 80 a5 00  	sb	a0, 0(a1)
80000400: 6f f0 9f fb  	j	0x800003b8 <.LBB3_6>

80000404 <.LBB3_8>:
80000404: 03 25 04 ff  	lw	a0, -16(s0)
80000408: 83 20 c1 02  	lw	ra, 44(sp)
8000040c: 03 24 81 02  	lw	s0, 40(sp)
80000410: 13 01 01 03  	addi	sp, sp, 48
80000414: 67 80 00 00  	ret

80000418 <main>:
80000418: 13 01 01 fe  	addi	sp, sp, -32
8000041c: 23 2e 11 00  	sw	ra, 28(sp)
80000420: 23 2c 81 00  	sw	s0, 24(sp)
80000424: 13 04 01 02  	addi	s0, sp, 32
80000428: 13 05 00 00  	li	a0, 0
8000042c: 23 24 a4 fe  	sw	a0, -24(s0)
80000430: 23 2a a4 fe  	sw	a0, -12(s0)
80000434: 37 05 00 80  	lui	a0, 524288
80000438: 93 05 45 1a  	addi	a1, a0, 420
8000043c: 37 05 00 f0  	lui	a0, 983040
80000440: ef 00 c0 0f  	jal	0x8000053c <uart_applyConfig>
80000444: 03 26 84 fe  	lw	a2, -24(s0)
80000448: 37 05 00 80  	lui	a0, 524288
8000044c: 13 05 85 18  	addi	a0, a0, 392
80000450: 93 05 30 00  	li	a1, 3
80000454: 0b 76 b5 08  	setload	a2, a0, a1
80000458: 37 05 00 80  	lui	a0, 524288
8000045c: 13 05 45 19  	addi	a0, a0, 404
80000460: 93 06 40 00  	li	a3, 4
80000464: 93 05 10 00  	li	a1, 1
80000468: 8b 75 d5 08  	setload	a1, a0, a3
8000046c: 37 05 00 80  	lui	a0, 524288
80000470: 93 06 c5 1b  	addi	a3, a0, 444
80000474: 13 05 20 00  	li	a0, 2
80000478: 23 22 a4 fe  	sw	a0, -28(s0)
8000047c: 0b f5 c6 08  	setload	a0, a3, a2
80000480: 0b f5 c5 02  	setdiff	a0, a1, a2
80000484: 37 05 00 80  	lui	a0, 524288
80000488: 13 05 b5 17  	addi	a0, a0, 379
8000048c: ef f0 df d6  	jal	0x800001f8 <print>
80000490: 03 25 44 fe  	lw	a0, -28(s0)
80000494: 0b 65 05 04  	setcount	a0, a0
80000498: 23 28 a4 fe  	sw	a0, -16(s0)
8000049c: 03 25 04 ff  	lw	a0, -16(s0)
800004a0: b7 05 00 80  	lui	a1, 524288
800004a4: 93 85 45 1e  	addi	a1, a1, 484
800004a8: 13 06 a0 00  	li	a2, 10
800004ac: ef f0 1f e3  	jal	0x800002dc <itoa>
800004b0: ef f0 5f df  	jal	0x800002a4 <println>
800004b4: 03 25 84 fe  	lw	a0, -24(s0)
800004b8: 23 26 a4 fe  	sw	a0, -20(s0)
800004bc: 6f 00 40 00  	j	0x800004c0 <.LBB4_1>

800004c0 <.LBB4_1>:
800004c0: 03 25 c4 fe  	lw	a0, -20(s0)
800004c4: 83 25 04 ff  	lw	a1, -16(s0)
800004c8: 63 5a b5 04  	bge	a0, a1, 0x8000051c <.LBB4_4>
800004cc: 6f 00 40 00  	j	0x800004d0 <.LBB4_2>

800004d0 <.LBB4_2>:
800004d0: 03 25 c4 fe  	lw	a0, -20(s0)
800004d4: 93 15 25 00  	slli	a1, a0, 2
800004d8: 37 05 00 80  	lui	a0, 524288
800004dc: 13 05 c5 1b  	addi	a0, a0, 444
800004e0: 33 05 b5 00  	add	a0, a0, a1
800004e4: 03 25 05 00  	lw	a0, 0(a0)
800004e8: b7 05 00 80  	lui	a1, 524288
800004ec: 93 85 45 1e  	addi	a1, a1, 484
800004f0: 13 06 a0 00  	li	a2, 10
800004f4: ef f0 9f de  	jal	0x800002dc <itoa>
800004f8: ef f0 1f d0  	jal	0x800001f8 <print>
800004fc: 37 05 00 80  	lui	a0, 524288
80000500: 13 05 95 17  	addi	a0, a0, 377
80000504: ef f0 5f cf  	jal	0x800001f8 <print>
80000508: 6f 00 40 00  	j	0x8000050c <.LBB4_3>

8000050c <.LBB4_3>:
8000050c: 03 25 c4 fe  	lw	a0, -20(s0)
80000510: 13 05 15 00  	addi	a0, a0, 1
80000514: 23 26 a4 fe  	sw	a0, -20(s0)
80000518: 6f f0 9f fa  	j	0x800004c0 <.LBB4_1>

8000051c <.LBB4_4>:
8000051c: 37 05 00 80  	lui	a0, 524288
80000520: 13 05 85 17  	addi	a0, a0, 376
80000524: ef f0 1f d8  	jal	0x800002a4 <println>
80000528: 03 25 44 ff  	lw	a0, -12(s0)
8000052c: 83 20 c1 01  	lw	ra, 28(sp)
80000530: 03 24 81 01  	lw	s0, 24(sp)
80000534: 13 01 01 02  	addi	sp, sp, 32
80000538: 67 80 00 00  	ret

8000053c <uart_applyConfig>:
8000053c: 13 01 01 ff  	addi	sp, sp, -16
80000540: 23 26 11 00  	sw	ra, 12(sp)
80000544: 23 24 81 00  	sw	s0, 8(sp)
80000548: 13 04 01 01  	addi	s0, sp, 16
8000054c: 23 2a a4 fe  	sw	a0, -12(s0)
80000550: 23 28 b4 fe  	sw	a1, -16(s0)
80000554: 03 25 04 ff  	lw	a0, -16(s0)
80000558: 03 25 c5 00  	lw	a0, 12(a0)
8000055c: 83 25 44 ff  	lw	a1, -12(s0)
80000560: 23 a4 a5 00  	sw	a0, 8(a1)
80000564: 83 25 04 ff  	lw	a1, -16(s0)
80000568: 03 a5 05 00  	lw	a0, 0(a1)
8000056c: 13 05 f5 ff  	addi	a0, a0, -1
80000570: 03 a6 45 00  	lw	a2, 4(a1)
80000574: 13 16 86 00  	slli	a2, a2, 8
80000578: 33 65 c5 00  	or	a0, a0, a2
8000057c: 83 a5 85 00  	lw	a1, 8(a1)
80000580: 93 95 05 01  	slli	a1, a1, 16
80000584: 33 65 b5 00  	or	a0, a0, a1
80000588: 83 25 44 ff  	lw	a1, -12(s0)
8000058c: 23 a6 a5 00  	sw	a0, 12(a1)
80000590: 83 20 c1 00  	lw	ra, 12(sp)
80000594: 03 24 81 00  	lw	s0, 8(sp)
80000598: 13 01 01 01  	addi	sp, sp, 16
8000059c: 67 80 00 00  	ret

800005a0 <irqCallback>:
800005a0: 13 01 01 ff  	addi	sp, sp, -16
800005a4: 23 26 11 00  	sw	ra, 12(sp)
800005a8: 23 24 81 00  	sw	s0, 8(sp)
800005ac: 13 04 01 01  	addi	s0, sp, 16
800005b0: 83 20 c1 00  	lw	ra, 12(sp)
800005b4: 03 24 81 00  	lw	s0, 8(sp)
800005b8: 13 01 01 01  	addi	sp, sp, 16
800005bc: 67 80 00 00  	ret

800005c0 <uart_writeAvailability>:
800005c0: 13 01 01 ff  	addi	sp, sp, -16
800005c4: 23 26 11 00  	sw	ra, 12(sp)
800005c8: 23 24 81 00  	sw	s0, 8(sp)
800005cc: 13 04 01 01  	addi	s0, sp, 16
800005d0: 23 2a a4 fe  	sw	a0, -12(s0)
800005d4: 03 25 44 ff  	lw	a0, -12(s0)
800005d8: 03 25 45 00  	lw	a0, 4(a0)
800005dc: 13 15 85 00  	slli	a0, a0, 8
800005e0: 13 55 85 01  	srli	a0, a0, 24
800005e4: 83 20 c1 00  	lw	ra, 12(sp)
800005e8: 03 24 81 00  	lw	s0, 8(sp)
800005ec: 13 01 01 01  	addi	sp, sp, 16
800005f0: 67 80 00 00  	ret

800005f4 <__mulsi3>:
800005f4: 13 06 05 00  	mv	a2, a0
800005f8: 13 05 00 00  	li	a0, 0

800005fc <.L1>:
800005fc: 93 f6 15 00  	andi	a3, a1, 1
80000600: 63 84 06 00  	beqz	a3, 0x80000608 <.L2>
80000604: 33 05 c5 00  	add	a0, a0, a2

80000608 <.L2>:
80000608: 93 d5 15 00  	srli	a1, a1, 1
8000060c: 13 16 16 00  	slli	a2, a2, 1
80000610: e3 96 05 fe  	bnez	a1, 0x800005fc <.L1>
80000614: 67 80 00 00  	ret

80000618 <__divsi3>:
80000618: 13 01 01 ff  	addi	sp, sp, -16
8000061c: 23 26 11 00  	sw	ra, 12(sp)
80000620: 23 24 81 00  	sw	s0, 8(sp)
80000624: 13 04 01 01  	addi	s0, sp, 16
80000628: 23 2a a4 fe  	sw	a0, -12(s0)
8000062c: 23 28 b4 fe  	sw	a1, -16(s0)
80000630: 03 25 44 ff  	lw	a0, -12(s0)
80000634: 83 25 04 ff  	lw	a1, -16(s0)
80000638: ef 00 40 01  	jal	0x8000064c <__divXi3>
8000063c: 83 20 c1 00  	lw	ra, 12(sp)
80000640: 03 24 81 00  	lw	s0, 8(sp)
80000644: 13 01 01 01  	addi	sp, sp, 16
80000648: 67 80 00 00  	ret

8000064c <__divXi3>:
8000064c: 13 01 01 fd  	addi	sp, sp, -48
80000650: 23 26 11 02  	sw	ra, 44(sp)
80000654: 23 24 81 02  	sw	s0, 40(sp)
80000658: 13 04 01 03  	addi	s0, sp, 48
8000065c: 23 2a a4 fe  	sw	a0, -12(s0)
80000660: 23 28 b4 fe  	sw	a1, -16(s0)
80000664: 13 05 f0 01  	li	a0, 31
80000668: 23 26 a4 fe  	sw	a0, -20(s0)
8000066c: 03 25 44 ff  	lw	a0, -12(s0)
80000670: 13 55 f5 41  	srai	a0, a0, 31
80000674: 23 24 a4 fe  	sw	a0, -24(s0)
80000678: 03 25 04 ff  	lw	a0, -16(s0)
8000067c: 13 55 f5 41  	srai	a0, a0, 31
80000680: 23 22 a4 fe  	sw	a0, -28(s0)
80000684: 03 25 44 ff  	lw	a0, -12(s0)
80000688: 83 25 84 fe  	lw	a1, -24(s0)
8000068c: 33 45 b5 00  	xor	a0, a0, a1
80000690: 33 05 b5 40  	sub	a0, a0, a1
80000694: 23 20 a4 fe  	sw	a0, -32(s0)
80000698: 03 25 04 ff  	lw	a0, -16(s0)
8000069c: 83 25 44 fe  	lw	a1, -28(s0)
800006a0: 33 45 b5 00  	xor	a0, a0, a1
800006a4: 33 05 b5 40  	sub	a0, a0, a1
800006a8: 23 2e a4 fc  	sw	a0, -36(s0)
800006ac: 83 25 44 fe  	lw	a1, -28(s0)
800006b0: 03 25 84 fe  	lw	a0, -24(s0)
800006b4: 33 45 b5 00  	xor	a0, a0, a1
800006b8: 23 24 a4 fe  	sw	a0, -24(s0)
800006bc: 03 25 04 fe  	lw	a0, -32(s0)
800006c0: 83 25 c4 fd  	lw	a1, -36(s0)
800006c4: ef 00 00 02  	jal	0x800006e4 <__udivsi3>
800006c8: 83 25 84 fe  	lw	a1, -24(s0)
800006cc: 33 45 b5 00  	xor	a0, a0, a1
800006d0: 33 05 b5 40  	sub	a0, a0, a1
800006d4: 83 20 c1 02  	lw	ra, 44(sp)
800006d8: 03 24 81 02  	lw	s0, 40(sp)
800006dc: 13 01 01 03  	addi	sp, sp, 48
800006e0: 67 80 00 00  	ret

800006e4 <__udivsi3>:
800006e4: 13 01 01 ff  	addi	sp, sp, -16
800006e8: 23 26 11 00  	sw	ra, 12(sp)
800006ec: 23 24 81 00  	sw	s0, 8(sp)
800006f0: 13 04 01 01  	addi	s0, sp, 16
800006f4: 23 2a a4 fe  	sw	a0, -12(s0)
800006f8: 23 28 b4 fe  	sw	a1, -16(s0)
800006fc: 03 25 44 ff  	lw	a0, -12(s0)
80000700: 83 25 04 ff  	lw	a1, -16(s0)
80000704: ef 00 40 01  	jal	0x80000718 <__udivXi3>
80000708: 83 20 c1 00  	lw	ra, 12(sp)
8000070c: 03 24 81 00  	lw	s0, 8(sp)
80000710: 13 01 01 01  	addi	sp, sp, 16
80000714: 67 80 00 00  	ret

80000718 <__udivXi3>:
80000718: 13 01 01 fc  	addi	sp, sp, -64
8000071c: 23 2e 11 02  	sw	ra, 60(sp)
80000720: 23 2c 81 02  	sw	s0, 56(sp)
80000724: 13 04 01 04  	addi	s0, sp, 64
80000728: 23 28 a4 fe  	sw	a0, -16(s0)
8000072c: 23 26 b4 fe  	sw	a1, -20(s0)
80000730: 13 05 00 02  	li	a0, 32
80000734: 23 24 a4 fe  	sw	a0, -24(s0)
80000738: 03 25 c4 fe  	lw	a0, -20(s0)
8000073c: 93 05 00 00  	li	a1, 0
80000740: 63 08 b5 08  	beq	a0, a1, 0x800007d0 <.LBB1_2>
80000744: 6f 00 40 00  	j	0x80000748 <.LBB1_1>

80000748 <.LBB1_1>:
80000748: 03 25 c4 fe  	lw	a0, -20(s0)
8000074c: 93 55 15 00  	srli	a1, a0, 1
80000750: 33 65 b5 00  	or	a0, a0, a1
80000754: 93 55 25 00  	srli	a1, a0, 2
80000758: 33 65 b5 00  	or	a0, a0, a1
8000075c: 93 55 45 00  	srli	a1, a0, 4
80000760: 33 65 b5 00  	or	a0, a0, a1
80000764: 93 55 85 00  	srli	a1, a0, 8
80000768: 33 65 b5 00  	or	a0, a0, a1
8000076c: 93 55 05 01  	srli	a1, a0, 16
80000770: 33 65 b5 00  	or	a0, a0, a1
80000774: 13 45 f5 ff  	not	a0, a0
80000778: 93 55 15 00  	srli	a1, a0, 1
8000077c: 37 56 55 55  	lui	a2, 349525
80000780: 13 06 56 55  	addi	a2, a2, 1365
80000784: b3 f5 c5 00  	and	a1, a1, a2
80000788: b3 05 b5 40  	sub	a1, a0, a1
8000078c: 37 35 33 33  	lui	a0, 209715
80000790: 13 06 35 33  	addi	a2, a0, 819
80000794: 33 f5 c5 00  	and	a0, a1, a2
80000798: 93 d5 25 00  	srli	a1, a1, 2
8000079c: b3 f5 c5 00  	and	a1, a1, a2
800007a0: 33 05 b5 00  	add	a0, a0, a1
800007a4: 93 55 45 00  	srli	a1, a0, 4
800007a8: 33 05 b5 00  	add	a0, a0, a1
800007ac: b7 15 0f 0f  	lui	a1, 61681
800007b0: 93 85 f5 f0  	addi	a1, a1, -241
800007b4: 33 75 b5 00  	and	a0, a0, a1
800007b8: b7 05 01 01  	lui	a1, 4112
800007bc: 93 85 15 10  	addi	a1, a1, 257
800007c0: ef f0 5f e3  	jal	0x800005f4 <__mulsi3>
800007c4: 13 55 85 01  	srli	a0, a0, 24
800007c8: 23 2a a4 fc  	sw	a0, -44(s0)
800007cc: 6f 00 00 01  	j	0x800007dc <.LBB1_3>

800007d0 <.LBB1_2>:
800007d0: 13 05 00 02  	li	a0, 32
800007d4: 23 2a a4 fc  	sw	a0, -44(s0)
800007d8: 6f 00 40 00  	j	0x800007dc <.LBB1_3>

800007dc <.LBB1_3>:
800007dc: 03 25 44 fd  	lw	a0, -44(s0)
800007e0: 23 28 a4 fc  	sw	a0, -48(s0)
800007e4: 03 25 04 ff  	lw	a0, -16(s0)
800007e8: 93 05 00 00  	li	a1, 0
800007ec: 63 08 b5 08  	beq	a0, a1, 0x8000087c <.LBB1_5>
800007f0: 6f 00 40 00  	j	0x800007f4 <.LBB1_4>

800007f4 <.LBB1_4>:
800007f4: 03 25 04 ff  	lw	a0, -16(s0)
800007f8: 93 55 15 00  	srli	a1, a0, 1
800007fc: 33 65 b5 00  	or	a0, a0, a1
80000800: 93 55 25 00  	srli	a1, a0, 2
80000804: 33 65 b5 00  	or	a0, a0, a1
80000808: 93 55 45 00  	srli	a1, a0, 4
8000080c: 33 65 b5 00  	or	a0, a0, a1
80000810: 93 55 85 00  	srli	a1, a0, 8
80000814: 33 65 b5 00  	or	a0, a0, a1
80000818: 93 55 05 01  	srli	a1, a0, 16
8000081c: 33 65 b5 00  	or	a0, a0, a1
80000820: 13 45 f5 ff  	not	a0, a0
80000824: 93 55 15 00  	srli	a1, a0, 1
80000828: 37 56 55 55  	lui	a2, 349525
8000082c: 13 06 56 55  	addi	a2, a2, 1365
80000830: b3 f5 c5 00  	and	a1, a1, a2
80000834: b3 05 b5 40  	sub	a1, a0, a1
80000838: 37 35 33 33  	lui	a0, 209715
8000083c: 13 06 35 33  	addi	a2, a0, 819
80000840: 33 f5 c5 00  	and	a0, a1, a2
80000844: 93 d5 25 00  	srli	a1, a1, 2
80000848: b3 f5 c5 00  	and	a1, a1, a2
8000084c: 33 05 b5 00  	add	a0, a0, a1
80000850: 93 55 45 00  	srli	a1, a0, 4
80000854: 33 05 b5 00  	add	a0, a0, a1
80000858: b7 15 0f 0f  	lui	a1, 61681
8000085c: 93 85 f5 f0  	addi	a1, a1, -241
80000860: 33 75 b5 00  	and	a0, a0, a1
80000864: b7 05 01 01  	lui	a1, 4112
80000868: 93 85 15 10  	addi	a1, a1, 257
8000086c: ef f0 9f d8  	jal	0x800005f4 <__mulsi3>
80000870: 13 55 85 01  	srli	a0, a0, 24
80000874: 23 26 a4 fc  	sw	a0, -52(s0)
80000878: 6f 00 00 01  	j	0x80000888 <.LBB1_6>

8000087c <.LBB1_5>:
8000087c: 13 05 00 02  	li	a0, 32
80000880: 23 26 a4 fc  	sw	a0, -52(s0)
80000884: 6f 00 40 00  	j	0x80000888 <.LBB1_6>

80000888 <.LBB1_6>:
80000888: 03 25 04 fd  	lw	a0, -48(s0)
8000088c: 83 25 c4 fc  	lw	a1, -52(s0)
80000890: 33 05 b5 40  	sub	a0, a0, a1
80000894: 23 22 a4 fe  	sw	a0, -28(s0)
80000898: 03 25 44 fe  	lw	a0, -28(s0)
8000089c: 93 05 00 02  	li	a1, 32
800008a0: 63 6a b5 00  	bltu	a0, a1, 0x800008b4 <.LBB1_8>
800008a4: 6f 00 40 00  	j	0x800008a8 <.LBB1_7>

800008a8 <.LBB1_7>:
800008a8: 13 05 00 00  	li	a0, 0
800008ac: 23 2a a4 fe  	sw	a0, -12(s0)
800008b0: 6f 00 80 10  	j	0x800009b8 <.LBB1_15>

800008b4 <.LBB1_8>:
800008b4: 03 25 44 fe  	lw	a0, -28(s0)
800008b8: 93 05 f0 01  	li	a1, 31
800008bc: 63 1a b5 00  	bne	a0, a1, 0x800008d0 <.LBB1_10>
800008c0: 6f 00 40 00  	j	0x800008c4 <.LBB1_9>

800008c4 <.LBB1_9>:
800008c4: 03 25 04 ff  	lw	a0, -16(s0)
800008c8: 23 2a a4 fe  	sw	a0, -12(s0)
800008cc: 6f 00 c0 0e  	j	0x800009b8 <.LBB1_15>

800008d0 <.LBB1_10>:
800008d0: 03 25 44 fe  	lw	a0, -28(s0)
800008d4: 13 05 15 00  	addi	a0, a0, 1
800008d8: 23 22 a4 fe  	sw	a0, -28(s0)
800008dc: 03 25 04 ff  	lw	a0, -16(s0)
800008e0: 83 25 44 fe  	lw	a1, -28(s0)
800008e4: 33 55 b5 00  	srl	a0, a0, a1
800008e8: 23 20 a4 fe  	sw	a0, -32(s0)
800008ec: 03 25 44 fe  	lw	a0, -28(s0)
800008f0: b3 05 a0 40  	neg	a1, a0
800008f4: 03 25 04 ff  	lw	a0, -16(s0)
800008f8: 33 15 b5 00  	sll	a0, a0, a1
800008fc: 23 28 a4 fe  	sw	a0, -16(s0)
80000900: 13 05 00 00  	li	a0, 0
80000904: 23 2e a4 fc  	sw	a0, -36(s0)
80000908: 6f 00 40 00  	j	0x8000090c <.LBB1_11>

8000090c <.LBB1_11>:
8000090c: 03 25 44 fe  	lw	a0, -28(s0)
80000910: 93 05 00 00  	li	a1, 0
80000914: 63 02 b5 08  	beq	a0, a1, 0x80000998 <.LBB1_14>
80000918: 6f 00 40 00  	j	0x8000091c <.LBB1_12>

8000091c <.LBB1_12>:
8000091c: 03 25 04 fe  	lw	a0, -32(s0)
80000920: 13 15 15 00  	slli	a0, a0, 1
80000924: 83 25 04 ff  	lw	a1, -16(s0)
80000928: 93 d5 f5 01  	srli	a1, a1, 31
8000092c: 33 65 b5 00  	or	a0, a0, a1
80000930: 23 20 a4 fe  	sw	a0, -32(s0)
80000934: 03 25 04 ff  	lw	a0, -16(s0)
80000938: 13 15 15 00  	slli	a0, a0, 1
8000093c: 83 25 c4 fd  	lw	a1, -36(s0)
80000940: 33 65 b5 00  	or	a0, a0, a1
80000944: 23 28 a4 fe  	sw	a0, -16(s0)
80000948: 83 25 c4 fe  	lw	a1, -20(s0)
8000094c: 03 25 04 fe  	lw	a0, -32(s0)
80000950: 13 45 f5 ff  	not	a0, a0
80000954: 33 05 b5 00  	add	a0, a0, a1
80000958: 13 55 f5 41  	srai	a0, a0, 31
8000095c: 23 2c a4 fc  	sw	a0, -40(s0)
80000960: 03 25 84 fd  	lw	a0, -40(s0)
80000964: 13 75 15 00  	andi	a0, a0, 1
80000968: 23 2e a4 fc  	sw	a0, -36(s0)
8000096c: 03 25 c4 fe  	lw	a0, -20(s0)
80000970: 83 25 84 fd  	lw	a1, -40(s0)
80000974: b3 75 b5 00  	and	a1, a0, a1
80000978: 03 25 04 fe  	lw	a0, -32(s0)
8000097c: 33 05 b5 40  	sub	a0, a0, a1
80000980: 23 20 a4 fe  	sw	a0, -32(s0)
80000984: 6f 00 40 00  	j	0x80000988 <.LBB1_13>

80000988 <.LBB1_13>:
80000988: 03 25 44 fe  	lw	a0, -28(s0)
8000098c: 13 05 f5 ff  	addi	a0, a0, -1
80000990: 23 22 a4 fe  	sw	a0, -28(s0)
80000994: 6f f0 9f f7  	j	0x8000090c <.LBB1_11>

80000998 <.LBB1_14>:
80000998: 03 25 04 ff  	lw	a0, -16(s0)
8000099c: 13 15 15 00  	slli	a0, a0, 1
800009a0: 83 25 c4 fd  	lw	a1, -36(s0)
800009a4: 33 65 b5 00  	or	a0, a0, a1
800009a8: 23 28 a4 fe  	sw	a0, -16(s0)
800009ac: 03 25 04 ff  	lw	a0, -16(s0)
800009b0: 23 2a a4 fe  	sw	a0, -12(s0)
800009b4: 6f 00 40 00  	j	0x800009b8 <.LBB1_15>

800009b8 <.LBB1_15>:
800009b8: 03 25 44 ff  	lw	a0, -12(s0)
800009bc: 83 20 c1 03  	lw	ra, 60(sp)
800009c0: 03 24 81 03  	lw	s0, 56(sp)
800009c4: 13 01 01 04  	addi	sp, sp, 64
800009c8: 67 80 00 00  	ret
